target datalayout = "e-m:e-p270:32:32-p271:32:32-p272:64:64-i64:64-i128:128-f80:128-n8:16:32:64-S128"
target triple = "x86_64-pc-linux-gnu"

%struct.STEAM_RemoteStorage = type { ptr, ptr, ptr, ptr, ptr, ptr, ptr, ptr, ptr, ptr }

@.str.2 = private unnamed_addr constant [16 x i8] c"libsteam_api.so\00", align 1
@.str.3 = private unnamed_addr constant [33 x i8] c"SteamAPI_SteamRemoteStorage_v016\00", align 1
@.str.4 = private unnamed_addr constant [57 x i8] c"Could not load function SteamAPI_SteamRemoteStorage_v016\00", align 1
@.str.5 = private unnamed_addr constant [54 x i8] c"SteamAPI_ISteamRemoteStorage_IsCloudEnabledForAccount\00", align 1
@.str.6 = private unnamed_addr constant [78 x i8] c"Could not load function SteamAPI_ISteamRemoteStorage_IsCloudEnabledForAccount\00", align 1
@.str.7 = private unnamed_addr constant [50 x i8] c"SteamAPI_ISteamRemoteStorage_IsCloudEnabledForApp\00", align 1
@.str.8 = private unnamed_addr constant [74 x i8] c"Could not load function SteamAPI_ISteamRemoteStorage_IsCloudEnabledForApp\00", align 1
@.str.9 = private unnamed_addr constant [49 x i8] c"SteamAPI_ISteamRemoteStorage_BeginFileWriteBatch\00", align 1
@.str.10 = private unnamed_addr constant [73 x i8] c"Could not load function SteamAPI_ISteamRemoteStorage_BeginFileWriteBatch\00", align 1
@.str.11 = private unnamed_addr constant [47 x i8] c"SteamAPI_ISteamRemoteStorage_EndFileWriteBatch\00", align 1
@.str.12 = private unnamed_addr constant [71 x i8] c"Could not load function SteamAPI_ISteamRemoteStorage_EndFileWriteBatch\00", align 1
@.str.13 = private unnamed_addr constant [41 x i8] c"SteamAPI_ISteamRemoteStorage_GetFileSize\00", align 1
@.str.14 = private unnamed_addr constant [65 x i8] c"Could not load function SteamAPI_ISteamRemoteStorage_GetFileSize\00", align 1
@.str.15 = private unnamed_addr constant [38 x i8] c"SteamAPI_ISteamRemoteStorage_FileRead\00", align 1
@.str.16 = private unnamed_addr constant [62 x i8] c"Could not load function SteamAPI_ISteamRemoteStorage_FileRead\00", align 1
@.str.17 = private unnamed_addr constant [39 x i8] c"SteamAPI_ISteamRemoteStorage_FileWrite\00", align 1
@.str.18 = private unnamed_addr constant [63 x i8] c"Could not load function SteamAPI_ISteamRemoteStorage_FileWrite\00", align 1
@.str.19 = private unnamed_addr constant [38 x i8] c"SteamAPI_ISteamRemoteStorage_GetQuota\00", align 1
@.str.20 = private unnamed_addr constant [62 x i8] c"Could not load function SteamAPI_ISteamRemoteStorage_GetQuota\00", align 1
@.str.21 = private unnamed_addr constant [31 x i8] c"SteamRemoteStorage unavailable\00", align 1
@.str.22 = private unnamed_addr constant [38 x i8] c"Steam cloud is disabled for this user\00", align 1
@.str.23 = private unnamed_addr constant [45 x i8] c"Steam cloud is disabled for this application\00", align 1
@.str.24 = private unnamed_addr constant [49 x i8] c"SteamRemoteStorage()->BeginFileWriteBatch failed\00", align 1

; Function Attrs: nounwind uwtable
define internal ptr @STEAM_User_Create(ptr noundef %0, ptr noundef %1, i32 noundef %2) #0 {
  %4 = alloca ptr, align 8
  %5 = alloca ptr, align 8
  %6 = alloca ptr, align 8
  %7 = alloca i32, align 4
  %8 = alloca ptr, align 8
  %9 = alloca ptr, align 8
  %10 = alloca ptr, align 8
  %11 = alloca i32, align 4
  store ptr %0, ptr %5, align 8
  store ptr %1, ptr %6, align 8
  store i32 %2, ptr %7, align 4
  call void @llvm.lifetime.start.p0(i64 8, ptr %8) #4
  call void @llvm.lifetime.start.p0(i64 8, ptr %9) #4
  call void @llvm.lifetime.start.p0(i64 8, ptr %10) #4
  %12 = call noalias ptr @SDL_malloc_REAL(i64 noundef 80)
  store ptr %12, ptr %9, align 8
  %13 = load ptr, ptr %9, align 8
  %14 = icmp eq ptr %13, null
  br i1 %14, label %15, label %16

15:                                               ; preds = %3
  store ptr null, ptr %4, align 8
  store i32 1, ptr %11, align 4
  br label %189

16:                                               ; preds = %3
  %17 = call ptr @SDL_LoadObject_REAL(ptr noundef @.str.2)
  %18 = load ptr, ptr %9, align 8
  %19 = getelementptr inbounds nuw %struct.STEAM_RemoteStorage, ptr %18, i32 0, i32 0
  store ptr %17, ptr %19, align 8
  %20 = load ptr, ptr %9, align 8
  %21 = getelementptr inbounds nuw %struct.STEAM_RemoteStorage, ptr %20, i32 0, i32 0
  %22 = load ptr, ptr %21, align 8
  %23 = icmp eq ptr %22, null
  br i1 %23, label %24, label %26

24:                                               ; preds = %16
  %25 = load ptr, ptr %9, align 8
  call void @SDL_free_REAL(ptr noundef %25)
  store ptr null, ptr %4, align 8
  store i32 1, ptr %11, align 4
  br label %189

26:                                               ; preds = %16
  %27 = load ptr, ptr %9, align 8
  %28 = getelementptr inbounds nuw %struct.STEAM_RemoteStorage, ptr %27, i32 0, i32 0
  %29 = load ptr, ptr %28, align 8
  %30 = call ptr @SDL_LoadFunction_REAL(ptr noundef %29, ptr noundef @.str.3)
  %31 = load ptr, ptr %9, align 8
  %32 = getelementptr inbounds nuw %struct.STEAM_RemoteStorage, ptr %31, i32 0, i32 1
  store ptr %30, ptr %32, align 8
  %33 = load ptr, ptr %9, align 8
  %34 = getelementptr inbounds nuw %struct.STEAM_RemoteStorage, ptr %33, i32 0, i32 1
  %35 = load ptr, ptr %34, align 8
  %36 = icmp eq ptr %35, null
  br i1 %36, label %37, label %39

37:                                               ; preds = %26
  %38 = call zeroext i1 (ptr, ...) @SDL_SetError_REAL(ptr noundef @.str.4)
  br label %184

39:                                               ; preds = %26
  %40 = load ptr, ptr %9, align 8
  %41 = getelementptr inbounds nuw %struct.STEAM_RemoteStorage, ptr %40, i32 0, i32 0
  %42 = load ptr, ptr %41, align 8
  %43 = call ptr @SDL_LoadFunction_REAL(ptr noundef %42, ptr noundef @.str.5)
  %44 = load ptr, ptr %9, align 8
  %45 = getelementptr inbounds nuw %struct.STEAM_RemoteStorage, ptr %44, i32 0, i32 2
  store ptr %43, ptr %45, align 8
  %46 = load ptr, ptr %9, align 8
  %47 = getelementptr inbounds nuw %struct.STEAM_RemoteStorage, ptr %46, i32 0, i32 2
  %48 = load ptr, ptr %47, align 8
  %49 = icmp eq ptr %48, null
  br i1 %49, label %50, label %52

50:                                               ; preds = %39
  %51 = call zeroext i1 (ptr, ...) @SDL_SetError_REAL(ptr noundef @.str.6)
  br label %184

52:                                               ; preds = %39
  %53 = load ptr, ptr %9, align 8
  %54 = getelementptr inbounds nuw %struct.STEAM_RemoteStorage, ptr %53, i32 0, i32 0
  %55 = load ptr, ptr %54, align 8
  %56 = call ptr @SDL_LoadFunction_REAL(ptr noundef %55, ptr noundef @.str.7)
  %57 = load ptr, ptr %9, align 8
  %58 = getelementptr inbounds nuw %struct.STEAM_RemoteStorage, ptr %57, i32 0, i32 3
  store ptr %56, ptr %58, align 8
  %59 = load ptr, ptr %9, align 8
  %60 = getelementptr inbounds nuw %struct.STEAM_RemoteStorage, ptr %59, i32 0, i32 3
  %61 = load ptr, ptr %60, align 8
  %62 = icmp eq ptr %61, null
  br i1 %62, label %63, label %65

63:                                               ; preds = %52
  %64 = call zeroext i1 (ptr, ...) @SDL_SetError_REAL(ptr noundef @.str.8)
  br label %184

65:                                               ; preds = %52
  %66 = load ptr, ptr %9, align 8
  %67 = getelementptr inbounds nuw %struct.STEAM_RemoteStorage, ptr %66, i32 0, i32 0
  %68 = load ptr, ptr %67, align 8
  %69 = call ptr @SDL_LoadFunction_REAL(ptr noundef %68, ptr noundef @.str.9)
  %70 = load ptr, ptr %9, align 8
  %71 = getelementptr inbounds nuw %struct.STEAM_RemoteStorage, ptr %70, i32 0, i32 4
  store ptr %69, ptr %71, align 8
  %72 = load ptr, ptr %9, align 8
  %73 = getelementptr inbounds nuw %struct.STEAM_RemoteStorage, ptr %72, i32 0, i32 4
  %74 = load ptr, ptr %73, align 8
  %75 = icmp eq ptr %74, null
  br i1 %75, label %76, label %78

76:                                               ; preds = %65
  %77 = call zeroext i1 (ptr, ...) @SDL_SetError_REAL(ptr noundef @.str.10)
  br label %184

78:                                               ; preds = %65
  %79 = load ptr, ptr %9, align 8
  %80 = getelementptr inbounds nuw %struct.STEAM_RemoteStorage, ptr %79, i32 0, i32 0
  %81 = load ptr, ptr %80, align 8
  %82 = call ptr @SDL_LoadFunction_REAL(ptr noundef %81, ptr noundef @.str.11)
  %83 = load ptr, ptr %9, align 8
  %84 = getelementptr inbounds nuw %struct.STEAM_RemoteStorage, ptr %83, i32 0, i32 5
  store ptr %82, ptr %84, align 8
  %85 = load ptr, ptr %9, align 8
  %86 = getelementptr inbounds nuw %struct.STEAM_RemoteStorage, ptr %85, i32 0, i32 5
  %87 = load ptr, ptr %86, align 8
  %88 = icmp eq ptr %87, null
  br i1 %88, label %89, label %91

89:                                               ; preds = %78
  %90 = call zeroext i1 (ptr, ...) @SDL_SetError_REAL(ptr noundef @.str.12)
  br label %184

91:                                               ; preds = %78
  %92 = load ptr, ptr %9, align 8
  %93 = getelementptr inbounds nuw %struct.STEAM_RemoteStorage, ptr %92, i32 0, i32 0
  %94 = load ptr, ptr %93, align 8
  %95 = call ptr @SDL_LoadFunction_REAL(ptr noundef %94, ptr noundef @.str.13)
  %96 = load ptr, ptr %9, align 8
  %97 = getelementptr inbounds nuw %struct.STEAM_RemoteStorage, ptr %96, i32 0, i32 6
  store ptr %95, ptr %97, align 8
  %98 = load ptr, ptr %9, align 8
  %99 = getelementptr inbounds nuw %struct.STEAM_RemoteStorage, ptr %98, i32 0, i32 6
  %100 = load ptr, ptr %99, align 8
  %101 = icmp eq ptr %100, null
  br i1 %101, label %102, label %104

102:                                              ; preds = %91
  %103 = call zeroext i1 (ptr, ...) @SDL_SetError_REAL(ptr noundef @.str.14)
  br label %184

104:                                              ; preds = %91
  %105 = load ptr, ptr %9, align 8
  %106 = getelementptr inbounds nuw %struct.STEAM_RemoteStorage, ptr %105, i32 0, i32 0
  %107 = load ptr, ptr %106, align 8
  %108 = call ptr @SDL_LoadFunction_REAL(ptr noundef %107, ptr noundef @.str.15)
  %109 = load ptr, ptr %9, align 8
  %110 = getelementptr inbounds nuw %struct.STEAM_RemoteStorage, ptr %109, i32 0, i32 7
  store ptr %108, ptr %110, align 8
  %111 = load ptr, ptr %9, align 8
  %112 = getelementptr inbounds nuw %struct.STEAM_RemoteStorage, ptr %111, i32 0, i32 7
  %113 = load ptr, ptr %112, align 8
  %114 = icmp eq ptr %113, null
  br i1 %114, label %115, label %117

115:                                              ; preds = %104
  %116 = call zeroext i1 (ptr, ...) @SDL_SetError_REAL(ptr noundef @.str.16)
  br label %184

117:                                              ; preds = %104
  %118 = load ptr, ptr %9, align 8
  %119 = getelementptr inbounds nuw %struct.STEAM_RemoteStorage, ptr %118, i32 0, i32 0
  %120 = load ptr, ptr %119, align 8
  %121 = call ptr @SDL_LoadFunction_REAL(ptr noundef %120, ptr noundef @.str.17)
  %122 = load ptr, ptr %9, align 8
  %123 = getelementptr inbounds nuw %struct.STEAM_RemoteStorage, ptr %122, i32 0, i32 8
  store ptr %121, ptr %123, align 8
  %124 = load ptr, ptr %9, align 8
  %125 = getelementptr inbounds nuw %struct.STEAM_RemoteStorage, ptr %124, i32 0, i32 8
  %126 = load ptr, ptr %125, align 8
  %127 = icmp eq ptr %126, null
  br i1 %127, label %128, label %130

128:                                              ; preds = %117
  %129 = call zeroext i1 (ptr, ...) @SDL_SetError_REAL(ptr noundef @.str.18)
  br label %184

130:                                              ; preds = %117
  %131 = load ptr, ptr %9, align 8
  %132 = getelementptr inbounds nuw %struct.STEAM_RemoteStorage, ptr %131, i32 0, i32 0
  %133 = load ptr, ptr %132, align 8
  %134 = call ptr @SDL_LoadFunction_REAL(ptr noundef %133, ptr noundef @.str.19)
  %135 = load ptr, ptr %9, align 8
  %136 = getelementptr inbounds nuw %struct.STEAM_RemoteStorage, ptr %135, i32 0, i32 9
  store ptr %134, ptr %136, align 8
  %137 = load ptr, ptr %9, align 8
  %138 = getelementptr inbounds nuw %struct.STEAM_RemoteStorage, ptr %137, i32 0, i32 9
  %139 = load ptr, ptr %138, align 8
  %140 = icmp eq ptr %139, null
  br i1 %140, label %141, label %143

141:                                              ; preds = %130
  %142 = call zeroext i1 (ptr, ...) @SDL_SetError_REAL(ptr noundef @.str.20)
  br label %184

143:                                              ; preds = %130
  %144 = load ptr, ptr %9, align 8
  %145 = getelementptr inbounds nuw %struct.STEAM_RemoteStorage, ptr %144, i32 0, i32 1
  %146 = load ptr, ptr %145, align 8
  %147 = call ptr %146()
  store ptr %147, ptr %10, align 8
  %148 = load ptr, ptr %10, align 8
  %149 = icmp eq ptr %148, null
  br i1 %149, label %150, label %152

150:                                              ; preds = %143
  %151 = call zeroext i1 (ptr, ...) @SDL_SetError_REAL(ptr noundef @.str.21)
  br label %184

152:                                              ; preds = %143
  %153 = load ptr, ptr %9, align 8
  %154 = getelementptr inbounds nuw %struct.STEAM_RemoteStorage, ptr %153, i32 0, i32 2
  %155 = load ptr, ptr %154, align 8
  %156 = load ptr, ptr %10, align 8
  %157 = call zeroext i1 %155(ptr noundef %156)
  br i1 %157, label %160, label %158

158:                                              ; preds = %152
  %159 = call zeroext i1 (ptr, ...) @SDL_SetError_REAL(ptr noundef @.str.22)
  br label %184

160:                                              ; preds = %152
  %161 = load ptr, ptr %9, align 8
  %162 = getelementptr inbounds nuw %struct.STEAM_RemoteStorage, ptr %161, i32 0, i32 3
  %163 = load ptr, ptr %162, align 8
  %164 = load ptr, ptr %10, align 8
  %165 = call zeroext i1 %163(ptr noundef %164)
  br i1 %165, label %168, label %166

166:                                              ; preds = %160
  %167 = call zeroext i1 (ptr, ...) @SDL_SetError_REAL(ptr noundef @.str.23)
  br label %184

168:                                              ; preds = %160
  %169 = load ptr, ptr %9, align 8
  %170 = getelementptr inbounds nuw %struct.STEAM_RemoteStorage, ptr %169, i32 0, i32 4
  %171 = load ptr, ptr %170, align 8
  %172 = load ptr, ptr %10, align 8
  %173 = call zeroext i1 %171(ptr noundef %172)
  br i1 %173, label %176, label %174

174:                                              ; preds = %168
  %175 = call zeroext i1 (ptr, ...) @SDL_SetError_REAL(ptr noundef @.str.24)
  br label %184

176:                                              ; preds = %168
  %177 = load ptr, ptr %9, align 8
  %178 = call ptr @SDL_OpenStorage_REAL(ptr noundef @STEAM_user_iface, ptr noundef %177)
  store ptr %178, ptr %8, align 8
  %179 = load ptr, ptr %8, align 8
  %180 = icmp eq ptr %179, null
  br i1 %180, label %181, label %182

181:                                              ; preds = %176
  br label %184

182:                                              ; preds = %176
  %183 = load ptr, ptr %8, align 8
  store ptr %183, ptr %4, align 8
  store i32 1, ptr %11, align 4
  br label %189

184:                                              ; preds = %181, %174, %166, %158, %150, %141, %128, %115, %102, %89, %76, %63, %50, %37
  %185 = load ptr, ptr %9, align 8
  %186 = getelementptr inbounds nuw %struct.STEAM_RemoteStorage, ptr %185, i32 0, i32 0
  %187 = load ptr, ptr %186, align 8
  call void @SDL_UnloadObject_REAL(ptr noundef %187)
  %188 = load ptr, ptr %9, align 8
  call void @SDL_free_REAL(ptr noundef %188)
  store ptr null, ptr %4, align 8
  store i32 1, ptr %11, align 4
  br label %189

189:                                              ; preds = %184, %182, %24, %15
  call void @llvm.lifetime.end.p0(i64 8, ptr %10) #4
  call void @llvm.lifetime.end.p0(i64 8, ptr %9) #4
  call void @llvm.lifetime.end.p0(i64 8, ptr %8) #4
  %190 = load ptr, ptr %4, align 8
  ret ptr %190
}