; Function Attrs: nounwind uwtable
define internal ptr @STEAM_User_Create(ptr readnone captures(none) %0, ptr readnone captures(none) %1, i32 %2) #0 {
  %4 = tail call noalias ptr @SDL_malloc_REAL(i64 noundef 80) #5
  %5 = icmp eq ptr %4, null
  br i1 %5, label %72, label %6

6:                                                ; preds = %3
  %7 = tail call ptr @SDL_LoadObject_REAL(ptr noundef nonnull @.str.2) #5
  store ptr %7, ptr %4, align 8
  %8 = icmp eq ptr %7, null
  br i1 %8, label %.sink.split49, label %9

9:                                                ; preds = %6
  %10 = tail call ptr @SDL_LoadFunction_REAL(ptr noundef nonnull %7, ptr noundef nonnull @.str.3) #5
  %11 = getelementptr inbounds nuw i8, ptr %4, i64 8
  store ptr %10, ptr %11, align 8
  %12 = icmp eq ptr %10, null
  br i1 %12, label %.sink.split, label %13

13:                                               ; preds = %9
  %14 = load ptr, ptr %4, align 8
  %15 = tail call ptr @SDL_LoadFunction_REAL(ptr noundef %14, ptr noundef nonnull @.str.5) #5
  %16 = getelementptr inbounds nuw i8, ptr %4, i64 16
  store ptr %15, ptr %16, align 8
  %17 = icmp eq ptr %15, null
  br i1 %17, label %.sink.split, label %18

18:                                               ; preds = %13
  %19 = load ptr, ptr %4, align 8
  %20 = tail call ptr @SDL_LoadFunction_REAL(ptr noundef %19, ptr noundef nonnull @.str.7) #5
  %21 = getelementptr inbounds nuw i8, ptr %4, i64 24
  store ptr %20, ptr %21, align 8
  %22 = icmp eq ptr %20, null
  br i1 %22, label %.sink.split, label %23

23:                                               ; preds = %18
  %24 = load ptr, ptr %4, align 8
  %25 = tail call ptr @SDL_LoadFunction_REAL(ptr noundef %24, ptr noundef nonnull @.str.9) #5
  %26 = getelementptr inbounds nuw i8, ptr %4, i64 32
  store ptr %25, ptr %26, align 8
  %27 = icmp eq ptr %25, null
  br i1 %27, label %.sink.split, label %28

28:                                               ; preds = %23
  %29 = load ptr, ptr %4, align 8
  %30 = tail call ptr @SDL_LoadFunction_REAL(ptr noundef %29, ptr noundef nonnull @.str.11) #5
  %31 = getelementptr inbounds nuw i8, ptr %4, i64 40
  store ptr %30, ptr %31, align 8
  %32 = icmp eq ptr %30, null
  br i1 %32, label %.sink.split, label %33

33:                                               ; preds = %28
  %34 = load ptr, ptr %4, align 8
  %35 = tail call ptr @SDL_LoadFunction_REAL(ptr noundef %34, ptr noundef nonnull @.str.13) #5
  %36 = getelementptr inbounds nuw i8, ptr %4, i64 48
  store ptr %35, ptr %36, align 8
  %37 = icmp eq ptr %35, null
  br i1 %37, label %.sink.split, label %38

38:                                               ; preds = %33
  %39 = load ptr, ptr %4, align 8
  %40 = tail call ptr @SDL_LoadFunction_REAL(ptr noundef %39, ptr noundef nonnull @.str.15) #5
  %41 = getelementptr inbounds nuw i8, ptr %4, i64 56
  store ptr %40, ptr %41, align 8
  %42 = icmp eq ptr %40, null
  br i1 %42, label %.sink.split, label %43

43:                                               ; preds = %38
  %44 = load ptr, ptr %4, align 8
  %45 = tail call ptr @SDL_LoadFunction_REAL(ptr noundef %44, ptr noundef nonnull @.str.17) #5
  %46 = getelementptr inbounds nuw i8, ptr %4, i64 64
  store ptr %45, ptr %46, align 8
  %47 = icmp eq ptr %45, null
  br i1 %47, label %.sink.split, label %48

48:                                               ; preds = %43
  %49 = load ptr, ptr %4, align 8
  %50 = tail call ptr @SDL_LoadFunction_REAL(ptr noundef %49, ptr noundef nonnull @.str.19) #5
  %51 = getelementptr inbounds nuw i8, ptr %4, i64 72
  store ptr %50, ptr %51, align 8
  %52 = icmp eq ptr %50, null
  br i1 %52, label %.sink.split, label %53

53:                                               ; preds = %48
  %54 = load ptr, ptr %11, align 8
  %55 = tail call ptr %54() #5
  %56 = icmp eq ptr %55, null
  br i1 %56, label %.sink.split, label %57

57:                                               ; preds = %53
  %58 = load ptr, ptr %16, align 8
  %59 = tail call zeroext i1 %58(ptr noundef nonnull %55) #5
  br i1 %59, label %60, label %.sink.split

60:                                               ; preds = %57
  %61 = load ptr, ptr %21, align 8
  %62 = tail call zeroext i1 %61(ptr noundef nonnull %55) #5
  br i1 %62, label %63, label %.sink.split

63:                                               ; preds = %60
  %64 = load ptr, ptr %26, align 8
  %65 = tail call zeroext i1 %64(ptr noundef nonnull %55) #5
  br i1 %65, label %66, label %.sink.split

66:                                               ; preds = %63
  %67 = tail call ptr @SDL_OpenStorage_REAL(ptr noundef nonnull @STEAM_user_iface, ptr noundef nonnull %4) #5
  %68 = icmp eq ptr %67, null
  br i1 %68, label %70, label %72

.sink.split:                                      ; preds = %63, %60, %57, %53, %48, %43, %38, %33, %28, %23, %18, %13, %9
  %.str.24.sink = phi ptr [ @.str.4, %9 ], [ @.str.6, %13 ], [ @.str.8, %18 ], [ @.str.10, %23 ], [ @.str.12, %28 ], [ @.str.14, %33 ], [ @.str.16, %38 ], [ @.str.18, %43 ], [ @.str.20, %48 ], [ @.str.21, %53 ], [ @.str.22, %57 ], [ @.str.23, %60 ], [ @.str.24, %63 ]
  %69 = tail call zeroext i1 (ptr, ...) @SDL_SetError_REAL(ptr noundef nonnull %.str.24.sink) #5
  br label %70

70:                                               ; preds = %.sink.split, %66
  %71 = load ptr, ptr %4, align 8
  tail call void @SDL_UnloadObject_REAL(ptr noundef %71) #5
  br label %.sink.split49

.sink.split49:                                    ; preds = %6, %70
  tail call void @SDL_free_REAL(ptr noundef nonnull %4) #5
  br label %72

72:                                               ; preds = %.sink.split49, %66, %3
  %.0 = phi ptr [ null, %3 ], [ %67, %66 ], [ null, %.sink.split49 ]
  ret ptr %.0
}